

Microchip Technology PIC LITE Macro Assembler V1.38 build -256452561 
                                                                                               Tue May 22 15:43:41 2018

Microchip Technology Omniscient Code Generator v1.38 (Free mode) build 201607010351
     1                           	processor	16F877A
     2                           	opt	pw 120
     3                           	opt	lm
     4                           	psect	cinit,global,class=CODE,merge=1,delta=2
     5                           	psect	cstackCOMMON,global,class=COMMON,space=1,delta=1
     6                           	psect	maintext,global,class=CODE,split=1,delta=2
     7                           	psect	text1,local,class=CODE,merge=1,delta=2
     8                           	psect	text2,local,class=CODE,merge=1,delta=2
     9                           	psect	text3,local,class=CODE,merge=1,delta=2
    10                           	psect	text4,local,class=CODE,merge=1,delta=2
    11                           	dabs	1,0x7E,2
    12  0000                     	;# 
    13  0001                     	;# 
    14  0002                     	;# 
    15  0003                     	;# 
    16  0004                     	;# 
    17  0005                     	;# 
    18  0006                     	;# 
    19  0007                     	;# 
    20  0008                     	;# 
    21  0009                     	;# 
    22  000A                     	;# 
    23  000B                     	;# 
    24  000C                     	;# 
    25  000D                     	;# 
    26  000E                     	;# 
    27  000E                     	;# 
    28  000F                     	;# 
    29  0010                     	;# 
    30  0011                     	;# 
    31  0012                     	;# 
    32  0013                     	;# 
    33  0014                     	;# 
    34  0015                     	;# 
    35  0015                     	;# 
    36  0016                     	;# 
    37  0017                     	;# 
    38  0018                     	;# 
    39  0019                     	;# 
    40  001A                     	;# 
    41  001B                     	;# 
    42  001B                     	;# 
    43  001C                     	;# 
    44  001D                     	;# 
    45  001E                     	;# 
    46  001F                     	;# 
    47  0081                     	;# 
    48  0085                     	;# 
    49  0086                     	;# 
    50  0087                     	;# 
    51  0088                     	;# 
    52  0089                     	;# 
    53  008C                     	;# 
    54  008D                     	;# 
    55  008E                     	;# 
    56  0091                     	;# 
    57  0092                     	;# 
    58  0093                     	;# 
    59  0094                     	;# 
    60  0098                     	;# 
    61  0099                     	;# 
    62  009C                     	;# 
    63  009D                     	;# 
    64  009E                     	;# 
    65  009F                     	;# 
    66  010C                     	;# 
    67  010D                     	;# 
    68  010E                     	;# 
    69  010F                     	;# 
    70  018C                     	;# 
    71  018D                     	;# 
    72  0006                     _PORTB	set	6
    73  0008                     _PORTD	set	8
    74  0030                     _RB0	set	48
    75  0031                     _RB1	set	49
    76  0032                     _RB2	set	50
    77  0033                     _RB3	set	51
    78  0040                     _RD0	set	64
    79  0041                     _RD1	set	65
    80  0042                     _RD2	set	66
    81  0043                     _RD3	set	67
    82  009C                     _CMCON	set	156
    83  0086                     _TRISB	set	134
    84  0088                     _TRISD	set	136
    85                           
    86                           ; #config settings
    87  0000                     
    88                           	psect	cinit
    89  07FC                     start_initialization:	
    90  07FC                     __initialization:	
    91  07FC                     end_of_initialization:	
    92                           ;End of C runtime variable initialization code
    93                           
    94  07FC                     __end_of__initialization:	
    95  07FC  0183               	clrf	3
    96  07FD  120A  118A  2E0A   	ljmp	_main	;jump to C main() function
    97                           
    98                           	psect	cstackCOMMON
    99  0070                     __pcstackCOMMON:	
   100  0070                     ?_sq1:	
   101  0070                     ?_sq2:	
   102                           ; 1 bytes @ 0x0
   103                           
   104  0070                     ?_sq3:	
   105                           ; 1 bytes @ 0x0
   106                           
   107  0070                     ?_blink:	
   108                           ; 1 bytes @ 0x0
   109                           
   110  0070                     ?_main:	
   111                           ; 1 bytes @ 0x0
   112                           
   113  0070                     blink@RB3:	
   114                           ; 1 bytes @ 0x0
   115                           
   116  0070                     sq1@RB3:	
   117                           ; 2 bytes @ 0x0
   118                           
   119  0070                     sq2@RB3:	
   120                           ; 2 bytes @ 0x0
   121                           
   122  0070                     sq3@RB3:	
   123                           ; 2 bytes @ 0x0
   124                           
   125                           
   126                           ; 2 bytes @ 0x0
   127  0070                     	ds	2
   128  0072                     ??_sq1:	
   129  0072                     ??_sq2:	
   130                           ; 1 bytes @ 0x2
   131                           
   132  0072                     ??_sq3:	
   133                           ; 1 bytes @ 0x2
   134                           
   135  0072                     ??_blink:	
   136                           ; 1 bytes @ 0x2
   137                           
   138                           
   139                           ; 1 bytes @ 0x2
   140  0072                     	ds	3
   141  0075                     ??_main:	
   142                           
   143                           ; 1 bytes @ 0x5
   144  0075                     	ds	2
   145                           
   146                           	psect	maintext
   147  060A                     __pmaintext:	
   148 ;;
   149 ;;Main: autosize = 0, tempsize = 2, incstack = 0, save=0
   150 ;;
   151 ;; *************** function _main *****************
   152 ;; Defined at:
   153 ;;		line 31 in file "main.c"
   154 ;; Parameters:    Size  Location     Type
   155 ;;		None
   156 ;; Auto vars:     Size  Location     Type
   157 ;;		None
   158 ;; Return value:  Size  Location     Type
   159 ;;                  1    wreg      void 
   160 ;; Registers used:
   161 ;;		wreg, status,2, status,0, pclath, cstack
   162 ;; Tracked objects:
   163 ;;		On entry : B00/0
   164 ;;		On exit  : 0/0
   165 ;;		Unchanged: 0/0
   166 ;; Data sizes:     COMMON   BANK0   BANK1   BANK3   BANK2
   167 ;;      Params:         0       0       0       0       0
   168 ;;      Locals:         0       0       0       0       0
   169 ;;      Temps:          2       0       0       0       0
   170 ;;      Totals:         2       0       0       0       0
   171 ;;Total ram usage:        2 bytes
   172 ;; Hardware stack levels required when called:    1
   173 ;; This function calls:
   174 ;;		_blink
   175 ;;		_sq1
   176 ;;		_sq2
   177 ;;		_sq3
   178 ;; This function is called by:
   179 ;;		Startup code after reset
   180 ;; This function uses a non-reentrant model
   181 ;;
   182                           
   183                           
   184                           ;psect for function _main
   185  060A                     _main:	
   186                           
   187                           ;main.c: 32: CMCON = 7;
   188                           
   189                           ;incstack = 0
   190                           ; Regs used in _main: [wreg+status,2+status,0+pclath+cstack]
   191  060A  3007               	movlw	7
   192  060B  1683               	bsf	3,5	;RP0=1, select bank1
   193  060C  1303               	bcf	3,6	;RP1=0, select bank1
   194  060D  009C               	movwf	28	;volatile
   195                           
   196                           ;main.c: 33: TRISB = 0;
   197  060E  0186               	clrf	6	;volatile
   198                           
   199                           ;main.c: 34: PORTB = 0;
   200  060F  1283               	bcf	3,5	;RP0=0, select bank0
   201  0610  1303               	bcf	3,6	;RP1=0, select bank0
   202  0611  0186               	clrf	6	;volatile
   203                           
   204                           ;main.c: 36: TRISD = 0;
   205  0612  1683               	bsf	3,5	;RP0=1, select bank1
   206  0613  1303               	bcf	3,6	;RP1=0, select bank1
   207  0614  0188               	clrf	8	;volatile
   208                           
   209                           ;main.c: 37: PORTD = 0b00000001;
   210  0615  3001               	movlw	1
   211  0616  1283               	bcf	3,5	;RP0=0, select bank0
   212  0617  1303               	bcf	3,6	;RP1=0, select bank0
   213  0618  0088               	movwf	8	;volatile
   214  0619                     l904:	
   215                           ;main.c: 39: while(1){
   216                           
   217                           
   218                           ;main.c: 40: if(RB0 == 1){
   219  0619  1283               	bcf	3,5	;RP0=0, select bank0
   220  061A  1303               	bcf	3,6	;RP1=0, select bank0
   221  061B  1C06               	btfss	6,0	;volatile
   222  061C  2E2E               	goto	l908
   223                           
   224                           ;main.c: 41: sq1(RB3);
   225  061D  1003               	clrc
   226  061E  1986               	btfsc	6,3	;volatile
   227  061F  1403               	setc
   228  0620  3000               	movlw	0
   229  0621  1803               	skipnc
   230  0622  3001               	movlw	1
   231  0623  00F5               	movwf	??_main
   232  0624  01F6               	clrf	??_main+1
   233  0625  0875               	movf	??_main,w
   234  0626  00F0               	movwf	sq1@RB3
   235  0627  0876               	movf	??_main+1,w
   236  0628  00F1               	movwf	sq1@RB3+1
   237  0629  120A  118A  26E0  120A  118A  	fcall	_sq1
   238  062E                     l908:	
   239                           
   240                           ;main.c: 42: }
   241                           ;main.c: 43: if(RB1 == 1){
   242  062E  1283               	bcf	3,5	;RP0=0, select bank0
   243  062F  1303               	bcf	3,6	;RP1=0, select bank0
   244  0630  1C86               	btfss	6,1	;volatile
   245  0631  2E43               	goto	l912
   246                           
   247                           ;main.c: 44: sq2(RB3);
   248  0632  1003               	clrc
   249  0633  1986               	btfsc	6,3	;volatile
   250  0634  1403               	setc
   251  0635  3000               	movlw	0
   252  0636  1803               	skipnc
   253  0637  3001               	movlw	1
   254  0638  00F5               	movwf	??_main
   255  0639  01F6               	clrf	??_main+1
   256  063A  0875               	movf	??_main,w
   257  063B  00F0               	movwf	sq2@RB3
   258  063C  0876               	movf	??_main+1,w
   259  063D  00F1               	movwf	sq2@RB3+1
   260  063E  120A  118A  276E  120A  118A  	fcall	_sq2
   261  0643                     l912:	
   262                           
   263                           ;main.c: 45: }
   264                           ;main.c: 46: if(RB2 == 1){
   265  0643  1283               	bcf	3,5	;RP0=0, select bank0
   266  0644  1303               	bcf	3,6	;RP1=0, select bank0
   267  0645  1D06               	btfss	6,2	;volatile
   268  0646  2E59               	goto	l916
   269                           
   270                           ;main.c: 47: sq3(RB3);
   271  0647  1003               	clrc
   272  0648  1986               	btfsc	6,3	;volatile
   273  0649  1403               	setc
   274  064A  3000               	movlw	0
   275  064B  1803               	skipnc
   276  064C  3001               	movlw	1
   277  064D  00F5               	movwf	??_main
   278  064E  01F6               	clrf	??_main+1
   279  064F  0875               	movf	??_main,w
   280  0650  00F0               	movwf	sq3@RB3
   281  0651  0876               	movf	??_main+1,w
   282  0652  00F1               	movwf	sq3@RB3+1
   283  0653  120A  118A  266D  120A  118A  	fcall	_sq3
   284                           
   285                           ;main.c: 48: }
   286  0658  2E19               	goto	l904
   287  0659                     l916:	
   288                           
   289                           ;main.c: 49: else{
   290                           ;main.c: 50: blink(RB3);
   291  0659  1003               	clrc
   292  065A  1283               	bcf	3,5	;RP0=0, select bank0
   293  065B  1303               	bcf	3,6	;RP1=0, select bank0
   294  065C  1986               	btfsc	6,3	;volatile
   295  065D  1403               	setc
   296  065E  3000               	movlw	0
   297  065F  1803               	skipnc
   298  0660  3001               	movlw	1
   299  0661  00F5               	movwf	??_main
   300  0662  01F6               	clrf	??_main+1
   301  0663  0875               	movf	??_main,w
   302  0664  00F0               	movwf	blink@RB3
   303  0665  0876               	movf	??_main+1,w
   304  0666  00F1               	movwf	blink@RB3+1
   305  0667  120A  118A  25D5  120A  118A  	fcall	_blink
   306  066C  2E19               	goto	l904
   307  066D                     __end_of_main:	
   308                           
   309                           	psect	text1
   310  066D                     __ptext1:	
   311 ;; *************** function _sq3 *****************
   312 ;; Defined at:
   313 ;;		line 131 in file "main.c"
   314 ;; Parameters:    Size  Location     Type
   315 ;;  RB3             2    0[COMMON] int 
   316 ;; Auto vars:     Size  Location     Type
   317 ;;		None
   318 ;; Return value:  Size  Location     Type
   319 ;;                  1    wreg      void 
   320 ;; Registers used:
   321 ;;		wreg, status,2, status,0
   322 ;; Tracked objects:
   323 ;;		On entry : 0/0
   324 ;;		On exit  : 0/0
   325 ;;		Unchanged: 0/0
   326 ;; Data sizes:     COMMON   BANK0   BANK1   BANK3   BANK2
   327 ;;      Params:         2       0       0       0       0
   328 ;;      Locals:         0       0       0       0       0
   329 ;;      Temps:          3       0       0       0       0
   330 ;;      Totals:         5       0       0       0       0
   331 ;;Total ram usage:        5 bytes
   332 ;; Hardware stack levels used:    1
   333 ;; This function calls:
   334 ;;		Nothing
   335 ;; This function is called by:
   336 ;;		_main
   337 ;; This function uses a non-reentrant model
   338 ;;
   339                           
   340                           
   341                           ;psect for function _sq3
   342  066D                     _sq3:	
   343                           
   344                           ;main.c: 132: if(RB3 == 0){
   345                           
   346                           ;incstack = 0
   347                           ; Regs used in _sq3: [wreg+status,2+status,0]
   348  066D  0870               	movf	sq3@RB3,w
   349  066E  0471               	iorwf	sq3@RB3+1,w
   350  066F  1D03               	btfss	3,2
   351  0670  2EA9               	goto	l852
   352                           
   353                           ;main.c: 133: PORTD = 0;
   354  0671  1283               	bcf	3,5	;RP0=0, select bank0
   355  0672  1303               	bcf	3,6	;RP1=0, select bank0
   356  0673  0188               	clrf	8	;volatile
   357                           
   358                           ;main.c: 134: RD3 = 1;
   359  0674  1588               	bsf	8,3	;volatile
   360                           
   361                           ;main.c: 135: RD0 = 1;
   362  0675  1408               	bsf	8,0	;volatile
   363                           
   364                           ;main.c: 136: _delay((unsigned long)((1000)*(4000000/4000.0)));
   365  0676  3006               	movlw	6
   366  0677  00F4               	movwf	??_sq3+2
   367  0678  3013               	movlw	19
   368  0679  00F3               	movwf	??_sq3+1
   369  067A  30B1               	movlw	177
   370  067B  00F2               	movwf	??_sq3
   371  067C                     u197:	
   372  067C  0BF2               	decfsz	??_sq3,f
   373  067D  2E7C               	goto	u197
   374  067E  0BF3               	decfsz	??_sq3+1,f
   375  067F  2E7C               	goto	u197
   376  0680  0BF4               	decfsz	??_sq3+2,f
   377  0681  2E7C               	goto	u197
   378  0682  2E83               	nop2
   379                           
   380                           ;main.c: 137: RD3 = 0;
   381  0683  1283               	bcf	3,5	;RP0=0, select bank0
   382  0684  1303               	bcf	3,6	;RP1=0, select bank0
   383  0685  1188               	bcf	8,3	;volatile
   384                           
   385                           ;main.c: 138: RD0 = 0;
   386  0686  1008               	bcf	8,0	;volatile
   387                           
   388                           ;main.c: 139: RD1 = 1;
   389  0687  1488               	bsf	8,1	;volatile
   390                           
   391                           ;main.c: 140: RD2 = 1;
   392  0688  1508               	bsf	8,2	;volatile
   393                           
   394                           ;main.c: 141: _delay((unsigned long)((1000)*(4000000/4000.0)));
   395  0689  3006               	movlw	6
   396  068A  00F4               	movwf	??_sq3+2
   397  068B  3013               	movlw	19
   398  068C  00F3               	movwf	??_sq3+1
   399  068D  30B1               	movlw	177
   400  068E  00F2               	movwf	??_sq3
   401  068F                     u207:	
   402  068F  0BF2               	decfsz	??_sq3,f
   403  0690  2E8F               	goto	u207
   404  0691  0BF3               	decfsz	??_sq3+1,f
   405  0692  2E8F               	goto	u207
   406  0693  0BF4               	decfsz	??_sq3+2,f
   407  0694  2E8F               	goto	u207
   408  0695  2E96               	nop2
   409                           
   410                           ;main.c: 142: RD1 = 0;
   411  0696  1283               	bcf	3,5	;RP0=0, select bank0
   412  0697  1303               	bcf	3,6	;RP1=0, select bank0
   413  0698  1088               	bcf	8,1	;volatile
   414                           
   415                           ;main.c: 143: RD2 = 0;
   416  0699  1108               	bcf	8,2	;volatile
   417                           
   418                           ;main.c: 144: RD3 = 1;
   419  069A  1588               	bsf	8,3	;volatile
   420                           
   421                           ;main.c: 145: _delay((unsigned long)((1000)*(4000000/4000.0)));
   422  069B  3006               	movlw	6
   423  069C  00F4               	movwf	??_sq3+2
   424  069D  3013               	movlw	19
   425  069E  00F3               	movwf	??_sq3+1
   426  069F  30B1               	movlw	177
   427  06A0  00F2               	movwf	??_sq3
   428  06A1                     u217:	
   429  06A1  0BF2               	decfsz	??_sq3,f
   430  06A2  2EA1               	goto	u217
   431  06A3  0BF3               	decfsz	??_sq3+1,f
   432  06A4  2EA1               	goto	u217
   433  06A5  0BF4               	decfsz	??_sq3+2,f
   434  06A6  2EA1               	goto	u217
   435  06A7  2EA8               	nop2
   436                           
   437                           ;main.c: 146: } else {
   438  06A8  0008               	return
   439  06A9                     l852:	
   440                           
   441                           ;main.c: 147: PORTD = 0;
   442  06A9  1283               	bcf	3,5	;RP0=0, select bank0
   443  06AA  1303               	bcf	3,6	;RP1=0, select bank0
   444  06AB  0188               	clrf	8	;volatile
   445                           
   446                           ;main.c: 148: RD3 = 1;
   447  06AC  1588               	bsf	8,3	;volatile
   448                           
   449                           ;main.c: 149: _delay((unsigned long)((1000)*(4000000/4000.0)));
   450  06AD  3006               	movlw	6
   451  06AE  00F4               	movwf	??_sq3+2
   452  06AF  3013               	movlw	19
   453  06B0  00F3               	movwf	??_sq3+1
   454  06B1  30B1               	movlw	177
   455  06B2  00F2               	movwf	??_sq3
   456  06B3                     u227:	
   457  06B3  0BF2               	decfsz	??_sq3,f
   458  06B4  2EB3               	goto	u227
   459  06B5  0BF3               	decfsz	??_sq3+1,f
   460  06B6  2EB3               	goto	u227
   461  06B7  0BF4               	decfsz	??_sq3+2,f
   462  06B8  2EB3               	goto	u227
   463  06B9  2EBA               	nop2
   464                           
   465                           ;main.c: 150: RD3 = 0;
   466  06BA  1283               	bcf	3,5	;RP0=0, select bank0
   467  06BB  1303               	bcf	3,6	;RP1=0, select bank0
   468  06BC  1188               	bcf	8,3	;volatile
   469                           
   470                           ;main.c: 151: RD1 = 1;
   471  06BD  1488               	bsf	8,1	;volatile
   472                           
   473                           ;main.c: 152: RD2 = 1;
   474  06BE  1508               	bsf	8,2	;volatile
   475                           
   476                           ;main.c: 153: _delay((unsigned long)((1000)*(4000000/4000.0)));
   477  06BF  3006               	movlw	6
   478  06C0  00F4               	movwf	??_sq3+2
   479  06C1  3013               	movlw	19
   480  06C2  00F3               	movwf	??_sq3+1
   481  06C3  30B1               	movlw	177
   482  06C4  00F2               	movwf	??_sq3
   483  06C5                     u237:	
   484  06C5  0BF2               	decfsz	??_sq3,f
   485  06C6  2EC5               	goto	u237
   486  06C7  0BF3               	decfsz	??_sq3+1,f
   487  06C8  2EC5               	goto	u237
   488  06C9  0BF4               	decfsz	??_sq3+2,f
   489  06CA  2EC5               	goto	u237
   490  06CB  2ECC               	nop2
   491                           
   492                           ;main.c: 154: RD1 = 0;
   493  06CC  1283               	bcf	3,5	;RP0=0, select bank0
   494  06CD  1303               	bcf	3,6	;RP1=0, select bank0
   495  06CE  1088               	bcf	8,1	;volatile
   496                           
   497                           ;main.c: 155: RD2 = 0;
   498  06CF  1108               	bcf	8,2	;volatile
   499                           
   500                           ;main.c: 156: RD3 = 1;
   501  06D0  1588               	bsf	8,3	;volatile
   502                           
   503                           ;main.c: 157: RD0 = 1;
   504  06D1  1408               	bsf	8,0	;volatile
   505                           
   506                           ;main.c: 158: _delay((unsigned long)((1000)*(4000000/4000.0)));
   507  06D2  3006               	movlw	6
   508  06D3  00F4               	movwf	??_sq3+2
   509  06D4  3013               	movlw	19
   510  06D5  00F3               	movwf	??_sq3+1
   511  06D6  30B1               	movlw	177
   512  06D7  00F2               	movwf	??_sq3
   513  06D8                     u247:	
   514  06D8  0BF2               	decfsz	??_sq3,f
   515  06D9  2ED8               	goto	u247
   516  06DA  0BF3               	decfsz	??_sq3+1,f
   517  06DB  2ED8               	goto	u247
   518  06DC  0BF4               	decfsz	??_sq3+2,f
   519  06DD  2ED8               	goto	u247
   520  06DE  2EDF               	nop2
   521  06DF  0008               	return
   522  06E0                     __end_of_sq3:	
   523                           
   524                           	psect	text2
   525  076E                     __ptext2:	
   526 ;; *************** function _sq2 *****************
   527 ;; Defined at:
   528 ;;		line 102 in file "main.c"
   529 ;; Parameters:    Size  Location     Type
   530 ;;  RB3             2    0[COMMON] int 
   531 ;; Auto vars:     Size  Location     Type
   532 ;;		None
   533 ;; Return value:  Size  Location     Type
   534 ;;                  1    wreg      void 
   535 ;; Registers used:
   536 ;;		wreg, status,2, status,0
   537 ;; Tracked objects:
   538 ;;		On entry : 0/0
   539 ;;		On exit  : 0/0
   540 ;;		Unchanged: 0/0
   541 ;; Data sizes:     COMMON   BANK0   BANK1   BANK3   BANK2
   542 ;;      Params:         2       0       0       0       0
   543 ;;      Locals:         0       0       0       0       0
   544 ;;      Temps:          3       0       0       0       0
   545 ;;      Totals:         5       0       0       0       0
   546 ;;Total ram usage:        5 bytes
   547 ;; Hardware stack levels used:    1
   548 ;; This function calls:
   549 ;;		Nothing
   550 ;; This function is called by:
   551 ;;		_main
   552 ;; This function uses a non-reentrant model
   553 ;;
   554                           
   555                           
   556                           ;psect for function _sq2
   557  076E                     _sq2:	
   558                           
   559                           ;main.c: 103: if(RB3 == 0){
   560                           
   561                           ;incstack = 0
   562                           ; Regs used in _sq2: [wreg+status,2+status,0]
   563  076E  0870               	movf	sq2@RB3,w
   564  076F  0471               	iorwf	sq2@RB3+1,w
   565  0770  1D03               	btfss	3,2
   566  0771  2FB7               	goto	l800
   567                           
   568                           ;main.c: 104: PORTD = 0;
   569  0772  1283               	bcf	3,5	;RP0=0, select bank0
   570  0773  1303               	bcf	3,6	;RP1=0, select bank0
   571  0774  0188               	clrf	8	;volatile
   572                           
   573                           ;main.c: 105: RD3 = 1;
   574  0775  1588               	bsf	8,3	;volatile
   575                           
   576                           ;main.c: 106: _delay((unsigned long)((1000)*(4000000/4000.0)));
   577  0776  3006               	movlw	6
   578  0777  00F4               	movwf	??_sq2+2
   579  0778  3013               	movlw	19
   580  0779  00F3               	movwf	??_sq2+1
   581  077A  30B1               	movlw	177
   582  077B  00F2               	movwf	??_sq2
   583  077C                     u257:	
   584  077C  0BF2               	decfsz	??_sq2,f
   585  077D  2F7C               	goto	u257
   586  077E  0BF3               	decfsz	??_sq2+1,f
   587  077F  2F7C               	goto	u257
   588  0780  0BF4               	decfsz	??_sq2+2,f
   589  0781  2F7C               	goto	u257
   590  0782  2F83               	nop2
   591                           
   592                           ;main.c: 107: RD3 = 0;
   593  0783  1283               	bcf	3,5	;RP0=0, select bank0
   594  0784  1303               	bcf	3,6	;RP1=0, select bank0
   595  0785  1188               	bcf	8,3	;volatile
   596                           
   597                           ;main.c: 108: RD1 = 1;
   598  0786  1488               	bsf	8,1	;volatile
   599                           
   600                           ;main.c: 109: _delay((unsigned long)((1000)*(4000000/4000.0)));
   601  0787  3006               	movlw	6
   602  0788  00F4               	movwf	??_sq2+2
   603  0789  3013               	movlw	19
   604  078A  00F3               	movwf	??_sq2+1
   605  078B  30B1               	movlw	177
   606  078C  00F2               	movwf	??_sq2
   607  078D                     u267:	
   608  078D  0BF2               	decfsz	??_sq2,f
   609  078E  2F8D               	goto	u267
   610  078F  0BF3               	decfsz	??_sq2+1,f
   611  0790  2F8D               	goto	u267
   612  0791  0BF4               	decfsz	??_sq2+2,f
   613  0792  2F8D               	goto	u267
   614  0793  2F94               	nop2
   615                           
   616                           ;main.c: 110: RD1 = 0;
   617  0794  1283               	bcf	3,5	;RP0=0, select bank0
   618  0795  1303               	bcf	3,6	;RP1=0, select bank0
   619  0796  1088               	bcf	8,1	;volatile
   620                           
   621                           ;main.c: 111: RD0 = 1;
   622  0797  1408               	bsf	8,0	;volatile
   623                           
   624                           ;main.c: 112: _delay((unsigned long)((1000)*(4000000/4000.0)));
   625  0798  3006               	movlw	6
   626  0799  00F4               	movwf	??_sq2+2
   627  079A  3013               	movlw	19
   628  079B  00F3               	movwf	??_sq2+1
   629  079C  30B1               	movlw	177
   630  079D  00F2               	movwf	??_sq2
   631  079E                     u277:	
   632  079E  0BF2               	decfsz	??_sq2,f
   633  079F  2F9E               	goto	u277
   634  07A0  0BF3               	decfsz	??_sq2+1,f
   635  07A1  2F9E               	goto	u277
   636  07A2  0BF4               	decfsz	??_sq2+2,f
   637  07A3  2F9E               	goto	u277
   638  07A4  2FA5               	nop2
   639                           
   640                           ;main.c: 113: RD0 = 0;
   641  07A5  1283               	bcf	3,5	;RP0=0, select bank0
   642  07A6  1303               	bcf	3,6	;RP1=0, select bank0
   643  07A7  1008               	bcf	8,0	;volatile
   644                           
   645                           ;main.c: 114: RD2 = 1;
   646  07A8  1508               	bsf	8,2	;volatile
   647                           
   648                           ;main.c: 115: _delay((unsigned long)((1000)*(4000000/4000.0)));
   649  07A9  3006               	movlw	6
   650  07AA  00F4               	movwf	??_sq2+2
   651  07AB  3013               	movlw	19
   652  07AC  00F3               	movwf	??_sq2+1
   653  07AD  30B1               	movlw	177
   654  07AE  00F2               	movwf	??_sq2
   655  07AF                     u287:	
   656  07AF  0BF2               	decfsz	??_sq2,f
   657  07B0  2FAF               	goto	u287
   658  07B1  0BF3               	decfsz	??_sq2+1,f
   659  07B2  2FAF               	goto	u287
   660  07B3  0BF4               	decfsz	??_sq2+2,f
   661  07B4  2FAF               	goto	u287
   662  07B5  2FB6               	nop2
   663                           
   664                           ;main.c: 116: } else {
   665  07B6  0008               	return
   666  07B7                     l800:	
   667                           
   668                           ;main.c: 117: PORTD = 0;
   669  07B7  1283               	bcf	3,5	;RP0=0, select bank0
   670  07B8  1303               	bcf	3,6	;RP1=0, select bank0
   671  07B9  0188               	clrf	8	;volatile
   672                           
   673                           ;main.c: 118: RD2 = 1;
   674  07BA  1508               	bsf	8,2	;volatile
   675                           
   676                           ;main.c: 119: _delay((unsigned long)((1000)*(4000000/4000.0)));
   677  07BB  3006               	movlw	6
   678  07BC  00F4               	movwf	??_sq2+2
   679  07BD  3013               	movlw	19
   680  07BE  00F3               	movwf	??_sq2+1
   681  07BF  30B1               	movlw	177
   682  07C0  00F2               	movwf	??_sq2
   683  07C1                     u297:	
   684  07C1  0BF2               	decfsz	??_sq2,f
   685  07C2  2FC1               	goto	u297
   686  07C3  0BF3               	decfsz	??_sq2+1,f
   687  07C4  2FC1               	goto	u297
   688  07C5  0BF4               	decfsz	??_sq2+2,f
   689  07C6  2FC1               	goto	u297
   690  07C7  2FC8               	nop2
   691                           
   692                           ;main.c: 120: RD2 = 0;
   693  07C8  1283               	bcf	3,5	;RP0=0, select bank0
   694  07C9  1303               	bcf	3,6	;RP1=0, select bank0
   695  07CA  1108               	bcf	8,2	;volatile
   696                           
   697                           ;main.c: 121: RD0 = 1;
   698  07CB  1408               	bsf	8,0	;volatile
   699                           
   700                           ;main.c: 122: _delay((unsigned long)((1000)*(4000000/4000.0)));
   701  07CC  3006               	movlw	6
   702  07CD  00F4               	movwf	??_sq2+2
   703  07CE  3013               	movlw	19
   704  07CF  00F3               	movwf	??_sq2+1
   705  07D0  30B1               	movlw	177
   706  07D1  00F2               	movwf	??_sq2
   707  07D2                     u307:	
   708  07D2  0BF2               	decfsz	??_sq2,f
   709  07D3  2FD2               	goto	u307
   710  07D4  0BF3               	decfsz	??_sq2+1,f
   711  07D5  2FD2               	goto	u307
   712  07D6  0BF4               	decfsz	??_sq2+2,f
   713  07D7  2FD2               	goto	u307
   714  07D8  2FD9               	nop2
   715                           
   716                           ;main.c: 123: RD0 = 0;
   717  07D9  1283               	bcf	3,5	;RP0=0, select bank0
   718  07DA  1303               	bcf	3,6	;RP1=0, select bank0
   719  07DB  1008               	bcf	8,0	;volatile
   720                           
   721                           ;main.c: 124: RD1 = 1;
   722  07DC  1488               	bsf	8,1	;volatile
   723                           
   724                           ;main.c: 125: _delay((unsigned long)((1000)*(4000000/4000.0)));
   725  07DD  3006               	movlw	6
   726  07DE  00F4               	movwf	??_sq2+2
   727  07DF  3013               	movlw	19
   728  07E0  00F3               	movwf	??_sq2+1
   729  07E1  30B1               	movlw	177
   730  07E2  00F2               	movwf	??_sq2
   731  07E3                     u317:	
   732  07E3  0BF2               	decfsz	??_sq2,f
   733  07E4  2FE3               	goto	u317
   734  07E5  0BF3               	decfsz	??_sq2+1,f
   735  07E6  2FE3               	goto	u317
   736  07E7  0BF4               	decfsz	??_sq2+2,f
   737  07E8  2FE3               	goto	u317
   738  07E9  2FEA               	nop2
   739                           
   740                           ;main.c: 126: RD1 = 0;
   741  07EA  1283               	bcf	3,5	;RP0=0, select bank0
   742  07EB  1303               	bcf	3,6	;RP1=0, select bank0
   743  07EC  1088               	bcf	8,1	;volatile
   744                           
   745                           ;main.c: 127: RD3 = 1;
   746  07ED  1588               	bsf	8,3	;volatile
   747                           
   748                           ;main.c: 128: _delay((unsigned long)((1000)*(4000000/4000.0)));
   749  07EE  3006               	movlw	6
   750  07EF  00F4               	movwf	??_sq2+2
   751  07F0  3013               	movlw	19
   752  07F1  00F3               	movwf	??_sq2+1
   753  07F2  30B1               	movlw	177
   754  07F3  00F2               	movwf	??_sq2
   755  07F4                     u327:	
   756  07F4  0BF2               	decfsz	??_sq2,f
   757  07F5  2FF4               	goto	u327
   758  07F6  0BF3               	decfsz	??_sq2+1,f
   759  07F7  2FF4               	goto	u327
   760  07F8  0BF4               	decfsz	??_sq2+2,f
   761  07F9  2FF4               	goto	u327
   762  07FA  2FFB               	nop2
   763  07FB  0008               	return
   764  07FC                     __end_of_sq2:	
   765                           
   766                           	psect	text3
   767  06E0                     __ptext3:	
   768 ;; *************** function _sq1 *****************
   769 ;; Defined at:
   770 ;;		line 73 in file "main.c"
   771 ;; Parameters:    Size  Location     Type
   772 ;;  RB3             2    0[COMMON] int 
   773 ;; Auto vars:     Size  Location     Type
   774 ;;		None
   775 ;; Return value:  Size  Location     Type
   776 ;;                  1    wreg      void 
   777 ;; Registers used:
   778 ;;		wreg, status,2, status,0
   779 ;; Tracked objects:
   780 ;;		On entry : 0/0
   781 ;;		On exit  : 0/0
   782 ;;		Unchanged: 0/0
   783 ;; Data sizes:     COMMON   BANK0   BANK1   BANK3   BANK2
   784 ;;      Params:         2       0       0       0       0
   785 ;;      Locals:         0       0       0       0       0
   786 ;;      Temps:          3       0       0       0       0
   787 ;;      Totals:         5       0       0       0       0
   788 ;;Total ram usage:        5 bytes
   789 ;; Hardware stack levels used:    1
   790 ;; This function calls:
   791 ;;		Nothing
   792 ;; This function is called by:
   793 ;;		_main
   794 ;; This function uses a non-reentrant model
   795 ;;
   796                           
   797                           
   798                           ;psect for function _sq1
   799  06E0                     _sq1:	
   800                           
   801                           ;main.c: 74: if(RB3 == 0){
   802                           
   803                           ;incstack = 0
   804                           ; Regs used in _sq1: [wreg+status,2+status,0]
   805  06E0  0870               	movf	sq1@RB3,w
   806  06E1  0471               	iorwf	sq1@RB3+1,w
   807  06E2  1D03               	btfss	3,2
   808  06E3  2F29               	goto	l750
   809                           
   810                           ;main.c: 75: PORTD = 0;
   811  06E4  1283               	bcf	3,5	;RP0=0, select bank0
   812  06E5  1303               	bcf	3,6	;RP1=0, select bank0
   813  06E6  0188               	clrf	8	;volatile
   814                           
   815                           ;main.c: 76: RD0 = 1;
   816  06E7  1408               	bsf	8,0	;volatile
   817                           
   818                           ;main.c: 77: _delay((unsigned long)((1000)*(4000000/4000.0)));
   819  06E8  3006               	movlw	6
   820  06E9  00F4               	movwf	??_sq1+2
   821  06EA  3013               	movlw	19
   822  06EB  00F3               	movwf	??_sq1+1
   823  06EC  30B1               	movlw	177
   824  06ED  00F2               	movwf	??_sq1
   825  06EE                     u337:	
   826  06EE  0BF2               	decfsz	??_sq1,f
   827  06EF  2EEE               	goto	u337
   828  06F0  0BF3               	decfsz	??_sq1+1,f
   829  06F1  2EEE               	goto	u337
   830  06F2  0BF4               	decfsz	??_sq1+2,f
   831  06F3  2EEE               	goto	u337
   832  06F4  2EF5               	nop2
   833                           
   834                           ;main.c: 78: RD0 = 0;
   835  06F5  1283               	bcf	3,5	;RP0=0, select bank0
   836  06F6  1303               	bcf	3,6	;RP1=0, select bank0
   837  06F7  1008               	bcf	8,0	;volatile
   838                           
   839                           ;main.c: 79: RD2 = 1;
   840  06F8  1508               	bsf	8,2	;volatile
   841                           
   842                           ;main.c: 80: _delay((unsigned long)((1000)*(4000000/4000.0)));
   843  06F9  3006               	movlw	6
   844  06FA  00F4               	movwf	??_sq1+2
   845  06FB  3013               	movlw	19
   846  06FC  00F3               	movwf	??_sq1+1
   847  06FD  30B1               	movlw	177
   848  06FE  00F2               	movwf	??_sq1
   849  06FF                     u347:	
   850  06FF  0BF2               	decfsz	??_sq1,f
   851  0700  2EFF               	goto	u347
   852  0701  0BF3               	decfsz	??_sq1+1,f
   853  0702  2EFF               	goto	u347
   854  0703  0BF4               	decfsz	??_sq1+2,f
   855  0704  2EFF               	goto	u347
   856  0705  2F06               	nop2
   857                           
   858                           ;main.c: 81: RD2 = 0;
   859  0706  1283               	bcf	3,5	;RP0=0, select bank0
   860  0707  1303               	bcf	3,6	;RP1=0, select bank0
   861  0708  1108               	bcf	8,2	;volatile
   862                           
   863                           ;main.c: 82: RD3 = 1;
   864  0709  1588               	bsf	8,3	;volatile
   865                           
   866                           ;main.c: 83: _delay((unsigned long)((1000)*(4000000/4000.0)));
   867  070A  3006               	movlw	6
   868  070B  00F4               	movwf	??_sq1+2
   869  070C  3013               	movlw	19
   870  070D  00F3               	movwf	??_sq1+1
   871  070E  30B1               	movlw	177
   872  070F  00F2               	movwf	??_sq1
   873  0710                     u357:	
   874  0710  0BF2               	decfsz	??_sq1,f
   875  0711  2F10               	goto	u357
   876  0712  0BF3               	decfsz	??_sq1+1,f
   877  0713  2F10               	goto	u357
   878  0714  0BF4               	decfsz	??_sq1+2,f
   879  0715  2F10               	goto	u357
   880  0716  2F17               	nop2
   881                           
   882                           ;main.c: 84: RD3 = 0;
   883  0717  1283               	bcf	3,5	;RP0=0, select bank0
   884  0718  1303               	bcf	3,6	;RP1=0, select bank0
   885  0719  1188               	bcf	8,3	;volatile
   886                           
   887                           ;main.c: 85: RD1 = 1;
   888  071A  1488               	bsf	8,1	;volatile
   889                           
   890                           ;main.c: 86: _delay((unsigned long)((1000)*(4000000/4000.0)));
   891  071B  3006               	movlw	6
   892  071C  00F4               	movwf	??_sq1+2
   893  071D  3013               	movlw	19
   894  071E  00F3               	movwf	??_sq1+1
   895  071F  30B1               	movlw	177
   896  0720  00F2               	movwf	??_sq1
   897  0721                     u367:	
   898  0721  0BF2               	decfsz	??_sq1,f
   899  0722  2F21               	goto	u367
   900  0723  0BF3               	decfsz	??_sq1+1,f
   901  0724  2F21               	goto	u367
   902  0725  0BF4               	decfsz	??_sq1+2,f
   903  0726  2F21               	goto	u367
   904  0727  2F28               	nop2
   905                           
   906                           ;main.c: 87: } else {
   907  0728  0008               	return
   908  0729                     l750:	
   909                           
   910                           ;main.c: 88: PORTD = 0;
   911  0729  1283               	bcf	3,5	;RP0=0, select bank0
   912  072A  1303               	bcf	3,6	;RP1=0, select bank0
   913  072B  0188               	clrf	8	;volatile
   914                           
   915                           ;main.c: 89: RD1 = 1;
   916  072C  1488               	bsf	8,1	;volatile
   917                           
   918                           ;main.c: 90: _delay((unsigned long)((1000)*(4000000/4000.0)));
   919  072D  3006               	movlw	6
   920  072E  00F4               	movwf	??_sq1+2
   921  072F  3013               	movlw	19
   922  0730  00F3               	movwf	??_sq1+1
   923  0731  30B1               	movlw	177
   924  0732  00F2               	movwf	??_sq1
   925  0733                     u377:	
   926  0733  0BF2               	decfsz	??_sq1,f
   927  0734  2F33               	goto	u377
   928  0735  0BF3               	decfsz	??_sq1+1,f
   929  0736  2F33               	goto	u377
   930  0737  0BF4               	decfsz	??_sq1+2,f
   931  0738  2F33               	goto	u377
   932  0739  2F3A               	nop2
   933                           
   934                           ;main.c: 91: RD1 = 0;
   935  073A  1283               	bcf	3,5	;RP0=0, select bank0
   936  073B  1303               	bcf	3,6	;RP1=0, select bank0
   937  073C  1088               	bcf	8,1	;volatile
   938                           
   939                           ;main.c: 92: RD3 = 1;
   940  073D  1588               	bsf	8,3	;volatile
   941                           
   942                           ;main.c: 93: _delay((unsigned long)((1000)*(4000000/4000.0)));
   943  073E  3006               	movlw	6
   944  073F  00F4               	movwf	??_sq1+2
   945  0740  3013               	movlw	19
   946  0741  00F3               	movwf	??_sq1+1
   947  0742  30B1               	movlw	177
   948  0743  00F2               	movwf	??_sq1
   949  0744                     u387:	
   950  0744  0BF2               	decfsz	??_sq1,f
   951  0745  2F44               	goto	u387
   952  0746  0BF3               	decfsz	??_sq1+1,f
   953  0747  2F44               	goto	u387
   954  0748  0BF4               	decfsz	??_sq1+2,f
   955  0749  2F44               	goto	u387
   956  074A  2F4B               	nop2
   957                           
   958                           ;main.c: 94: RD3 = 0;
   959  074B  1283               	bcf	3,5	;RP0=0, select bank0
   960  074C  1303               	bcf	3,6	;RP1=0, select bank0
   961  074D  1188               	bcf	8,3	;volatile
   962                           
   963                           ;main.c: 95: RD2 = 1;
   964  074E  1508               	bsf	8,2	;volatile
   965                           
   966                           ;main.c: 96: _delay((unsigned long)((1000)*(4000000/4000.0)));
   967  074F  3006               	movlw	6
   968  0750  00F4               	movwf	??_sq1+2
   969  0751  3013               	movlw	19
   970  0752  00F3               	movwf	??_sq1+1
   971  0753  30B1               	movlw	177
   972  0754  00F2               	movwf	??_sq1
   973  0755                     u397:	
   974  0755  0BF2               	decfsz	??_sq1,f
   975  0756  2F55               	goto	u397
   976  0757  0BF3               	decfsz	??_sq1+1,f
   977  0758  2F55               	goto	u397
   978  0759  0BF4               	decfsz	??_sq1+2,f
   979  075A  2F55               	goto	u397
   980  075B  2F5C               	nop2
   981                           
   982                           ;main.c: 97: RD2 = 0;
   983  075C  1283               	bcf	3,5	;RP0=0, select bank0
   984  075D  1303               	bcf	3,6	;RP1=0, select bank0
   985  075E  1108               	bcf	8,2	;volatile
   986                           
   987                           ;main.c: 98: RD0 = 1;
   988  075F  1408               	bsf	8,0	;volatile
   989                           
   990                           ;main.c: 99: _delay((unsigned long)((1000)*(4000000/4000.0)));
   991  0760  3006               	movlw	6
   992  0761  00F4               	movwf	??_sq1+2
   993  0762  3013               	movlw	19
   994  0763  00F3               	movwf	??_sq1+1
   995  0764  30B1               	movlw	177
   996  0765  00F2               	movwf	??_sq1
   997  0766                     u407:	
   998  0766  0BF2               	decfsz	??_sq1,f
   999  0767  2F66               	goto	u407
  1000  0768  0BF3               	decfsz	??_sq1+1,f
  1001  0769  2F66               	goto	u407
  1002  076A  0BF4               	decfsz	??_sq1+2,f
  1003  076B  2F66               	goto	u407
  1004  076C  2F6D               	nop2
  1005  076D  0008               	return
  1006  076E                     __end_of_sq1:	
  1007                           
  1008                           	psect	text4
  1009  05D5                     __ptext4:	
  1010 ;; *************** function _blink *****************
  1011 ;; Defined at:
  1012 ;;		line 56 in file "main.c"
  1013 ;; Parameters:    Size  Location     Type
  1014 ;;  RB3             2    0[COMMON] int 
  1015 ;; Auto vars:     Size  Location     Type
  1016 ;;		None
  1017 ;; Return value:  Size  Location     Type
  1018 ;;                  1    wreg      void 
  1019 ;; Registers used:
  1020 ;;		wreg, status,2, status,0
  1021 ;; Tracked objects:
  1022 ;;		On entry : 0/0
  1023 ;;		On exit  : 0/0
  1024 ;;		Unchanged: 0/0
  1025 ;; Data sizes:     COMMON   BANK0   BANK1   BANK3   BANK2
  1026 ;;      Params:         2       0       0       0       0
  1027 ;;      Locals:         0       0       0       0       0
  1028 ;;      Temps:          3       0       0       0       0
  1029 ;;      Totals:         5       0       0       0       0
  1030 ;;Total ram usage:        5 bytes
  1031 ;; Hardware stack levels used:    1
  1032 ;; This function calls:
  1033 ;;		Nothing
  1034 ;; This function is called by:
  1035 ;;		_main
  1036 ;; This function uses a non-reentrant model
  1037 ;;
  1038                           
  1039                           
  1040                           ;psect for function _blink
  1041  05D5                     _blink:	
  1042                           
  1043                           ;main.c: 57: if(RB3 == 0){
  1044                           
  1045                           ;incstack = 0
  1046                           ; Regs used in _blink: [wreg+status,2+status,0]
  1047  05D5  0870               	movf	blink@RB3,w
  1048  05D6  0471               	iorwf	blink@RB3+1,w
  1049  05D7  1D03               	btfss	3,2
  1050  05D8  2DF2               	goto	l886
  1051                           
  1052                           ;main.c: 58: _delay((unsigned long)((1000)*(4000000/4000.0)));
  1053  05D9  3006               	movlw	6
  1054  05DA  00F4               	movwf	??_blink+2
  1055  05DB  3013               	movlw	19
  1056  05DC  00F3               	movwf	??_blink+1
  1057  05DD  30B1               	movlw	177
  1058  05DE  00F2               	movwf	??_blink
  1059  05DF                     u417:	
  1060  05DF  0BF2               	decfsz	??_blink,f
  1061  05E0  2DDF               	goto	u417
  1062  05E1  0BF3               	decfsz	??_blink+1,f
  1063  05E2  2DDF               	goto	u417
  1064  05E3  0BF4               	decfsz	??_blink+2,f
  1065  05E4  2DDF               	goto	u417
  1066  05E5  2DE6               	nop2
  1067                           
  1068                           ;main.c: 59: if(PORTD == 8)
  1069  05E6  3008               	movlw	8
  1070  05E7  1283               	bcf	3,5	;RP0=0, select bank0
  1071  05E8  1303               	bcf	3,6	;RP1=0, select bank0
  1072  05E9  0608               	xorwf	8,w	;volatile
  1073  05EA  1D03               	btfss	3,2
  1074  05EB  2DEF               	goto	l884
  1075                           
  1076                           ;main.c: 60: PORTD = 1;
  1077  05EC  3001               	movlw	1
  1078  05ED  0088               	movwf	8	;volatile
  1079  05EE  0008               	return
  1080  05EF                     l884:	
  1081                           
  1082                           ;main.c: 61: else{
  1083                           ;main.c: 62: PORTD <<= 1;
  1084  05EF  1003               	clrc
  1085  05F0  0D88               	rlf	8,f	;volatile
  1086                           
  1087                           ;main.c: 63: }
  1088                           ;main.c: 64: } else {
  1089  05F1  0008               	return
  1090  05F2                     l886:	
  1091                           
  1092                           ;main.c: 65: _delay((unsigned long)((1000)*(4000000/4000.0)));
  1093  05F2  3006               	movlw	6
  1094  05F3  00F4               	movwf	??_blink+2
  1095  05F4  3013               	movlw	19
  1096  05F5  00F3               	movwf	??_blink+1
  1097  05F6  30B1               	movlw	177
  1098  05F7  00F2               	movwf	??_blink
  1099  05F8                     u427:	
  1100  05F8  0BF2               	decfsz	??_blink,f
  1101  05F9  2DF8               	goto	u427
  1102  05FA  0BF3               	decfsz	??_blink+1,f
  1103  05FB  2DF8               	goto	u427
  1104  05FC  0BF4               	decfsz	??_blink+2,f
  1105  05FD  2DF8               	goto	u427
  1106  05FE  2DFF               	nop2
  1107                           
  1108                           ;main.c: 66: if(PORTD == 1)
  1109  05FF  1283               	bcf	3,5	;RP0=0, select bank0
  1110  0600  1303               	bcf	3,6	;RP1=0, select bank0
  1111  0601  0308               	decf	8,w	;volatile
  1112  0602  1D03               	btfss	3,2
  1113  0603  2E07               	goto	l892
  1114                           
  1115                           ;main.c: 67: PORTD = 8;
  1116  0604  3008               	movlw	8
  1117  0605  0088               	movwf	8	;volatile
  1118  0606  0008               	return
  1119  0607                     l892:	
  1120                           
  1121                           ;main.c: 68: else{
  1122                           ;main.c: 69: PORTD >>= 1;
  1123  0607  1003               	clrc
  1124  0608  0C88               	rrf	8,f	;volatile
  1125  0609  0008               	return
  1126  060A                     __end_of_blink:	
  1127  007E                     btemp	set	126	;btemp
  1128  007E                     wtemp	set	126
  1129  007E                     wtemp0	set	126
  1130  0080                     wtemp1	set	128
  1131  0082                     wtemp2	set	130
  1132  0084                     wtemp3	set	132
  1133  0086                     wtemp4	set	134
  1134  0088                     wtemp5	set	136
  1135  007F                     wtemp6	set	127
  1136  007E                     ttemp	set	126
  1137  007E                     ttemp0	set	126
  1138  0081                     ttemp1	set	129
  1139  0084                     ttemp2	set	132
  1140  0087                     ttemp3	set	135
  1141  007F                     ttemp4	set	127
  1142  007E                     ltemp	set	126
  1143  007E                     ltemp0	set	126
  1144  0082                     ltemp1	set	130
  1145  0086                     ltemp2	set	134
  1146  0080                     ltemp3	set	128


Data Sizes:
    Strings     0
    Constant    0
    Data        0
    BSS         0
    Persistent  0
    Stack       0

Auto Spaces:
    Space          Size  Autos    Used
    COMMON           14      7       7
    BANK0            80      0       0
    BANK1            80      0       0
    BANK3            96      0       0
    BANK2            96      0       0

Pointer List with Targets:

    None.

Critical Paths under _main in COMMON

    _main->_blink
    _main->_sq1
    _main->_sq2
    _main->_sq3

Critical Paths under _main in BANK0

    None.

Critical Paths under _main in BANK1

    None.

Critical Paths under _main in BANK3

    None.

Critical Paths under _main in BANK2

    None.

Call Graph Tables:

 ---------------------------------------------------------------------------------
 (Depth) Function   	        Calls       Base Space   Used Autos Params    Refs
 ---------------------------------------------------------------------------------
 (0) _main                                                 2     2      0     300
                                              5 COMMON     2     2      0
                              _blink
                                _sq1
                                _sq2
                                _sq3
 ---------------------------------------------------------------------------------
 (1) _sq3                                                  5     3      2      75
                                              0 COMMON     5     3      2
 ---------------------------------------------------------------------------------
 (1) _sq2                                                  5     3      2      75
                                              0 COMMON     5     3      2
 ---------------------------------------------------------------------------------
 (1) _sq1                                                  5     3      2      75
                                              0 COMMON     5     3      2
 ---------------------------------------------------------------------------------
 (1) _blink                                                5     3      2      75
                                              0 COMMON     5     3      2
 ---------------------------------------------------------------------------------
 Estimated maximum stack depth 1
 ---------------------------------------------------------------------------------

 Call Graph Graphs:

 _main (ROOT)
   _blink
   _sq1
   _sq2
   _sq3

 Address spaces:
Name               Size   Autos  Total    Cost      Usage
BITCOMMON            E      0       0       0        0.0%
EEDATA             100      0       0       0        0.0%
NULL                 0      0       0       0        0.0%
CODE                 0      0       0       0        0.0%
COMMON               E      7       7       1       50.0%
BITSFR0              0      0       0       1        0.0%
SFR0                 0      0       0       1        0.0%
BITSFR1              0      0       0       2        0.0%
SFR1                 0      0       0       2        0.0%
STACK                0      0       0       2        0.0%
ABS                  0      0       0       3        0.0%
BITBANK0            50      0       0       4        0.0%
BITSFR3              0      0       0       4        0.0%
SFR3                 0      0       0       4        0.0%
BANK0               50      0       0       5        0.0%
BITSFR2              0      0       0       5        0.0%
SFR2                 0      0       0       5        0.0%
BITBANK1            50      0       0       6        0.0%
BANK1               50      0       0       7        0.0%
BITBANK3            60      0       0       8        0.0%
BANK3               60      0       0       9        0.0%
BITBANK2            60      0       0      10        0.0%
BANK2               60      0       0      11        0.0%
DATA                 0      0       0      12        0.0%


Microchip Technology PIC Macro Assembler V1.38 build -256452561 
Symbol Table                                                                                   Tue May 22 15:43:41 2018

            __CFG_CP$OFF 0000              __CFG_LVP$ON 0000                      l800 07B7  
                    l750 0729                      l912 0643                      l904 0619  
                    l852 06A9                      l916 0659                      l908 062E  
                    l892 0607                      l884 05EF                      l886 05F2  
                    _RB0 0030                      _RB1 0031                      _RB2 0032  
                    _RB3 0033                      _RD0 0040                      _RD1 0041  
                    _RD2 0042                      _RD3 0043                      u207 068F  
                    u217 06A1                      u307 07D2                      u227 06B3  
                    u317 07E3                      u237 06C5                      u407 0766  
                    u327 07F4                      u247 06D8                      u417 05DF  
                    u337 06EE                      u257 077C             __CFG_CPD$OFF 0000  
                    u427 05F8                      u347 06FF                      u267 078D  
                    u357 0710                      u277 079E                      u197 067C  
                    u367 0721                      u287 07AF                      u377 0733  
                    u297 07C1                      u387 0744                      u397 0755  
                    _sq1 06E0                      _sq2 076E                      _sq3 066D  
           __CFG_FOSC$XT 0000                     ?_sq1 0070                     ?_sq2 0070  
                   ?_sq3 0070             __CFG_WRT$OFF 0000                     _main 060A  
                   btemp 007E            __CFG_BOREN$ON 0000                     ltemp 007E  
                   start 0000                     ttemp 007E                     wtemp 007E  
                  ??_sq1 0072                    ??_sq2 0072                    ??_sq3 0072  
                  ?_main 0070            __CFG_WDTE$OFF 0000                    _CMCON 009C  
                  _PORTB 0006                    _PORTD 0008                    _TRISB 0086  
                  _TRISD 0088                    _blink 05D5                    ltemp0 007E  
                  ltemp1 0082                    ltemp2 0086                    ltemp3 0080  
                  ttemp0 007E                    ttemp1 0081                    ttemp2 0084  
                  ttemp3 0087                    ttemp4 007F                    status 0003  
                  wtemp0 007E                    wtemp1 0080                    wtemp2 0082  
                  wtemp3 0084                    wtemp4 0086                    wtemp5 0088  
                  wtemp6 007F          __initialization 07FC             __end_of_main 066D  
                 ??_main 0075                   ?_blink 0070           __CFG_PWRTE$OFF 0000  
                 sq1@RB3 0070                   sq2@RB3 0070                   sq3@RB3 0070  
__end_of__initialization 07FC           __pcstackCOMMON 0070            __end_of_blink 060A  
                ??_blink 0072               __pmaintext 060A                  __ptext1 066D  
                __ptext2 076E                  __ptext3 06E0                  __ptext4 05D5  
           __size_of_sq1 008E             __size_of_sq2 008E             __size_of_sq3 0073  
   end_of_initialization 07FC      start_initialization 07FC              __end_of_sq1 076E  
            __end_of_sq2 07FC              __end_of_sq3 06E0                ___latbits 0002  
         __size_of_blink 0035            __size_of_main 0063                 blink@RB3 0070  
